			EXT1		EQU	16F1h
			EXT2		EQU	0A202h
			EXT3		EQU	0AC01h
			EXT4		EQU	0EE5Eh
			EXT5		EQU	0F4F3h


				ORG	2700h
2700:			V_2700:	DS	2

				ORG	2F00h
2F00:			V_2F00:	DS	1

				ORG	0C04Ch
C04C:	01 FD FF		LD	BC, 0FFFDh	; 65533 ; -3
C04F:	3E 0C			LD	A, 0Ch		; 12
C051:	ED 79			OUT	(C), A
C053:	AF			XOR	A
C054:	06 BF			LD	B, 0BFh		; 191 ; -65
C056:	C3 95 C4		JP	LBL30
C059:	21 A8 C4		LD	HL, 0C4A8h	; 50344 ; -15192
C05C:	C3 62 C0		JP	LBL1
C05F:	C3 9D C1		JP	LBL5
C062:			LBL1:
C062:	F3			DI
C063:	7E			LD	A, (HL)
C064:	32 D1 C0		LD	(VAR4), A
C067:	22 14 C1		LD	(SMC5+1), HL
C06A:	23			INC	HL
C06B:	CD 0E C1		CALL	SUB2
C06E:	1A			LD	A, (DE)
C06F:	13			INC	DE
C070:	3C			INC	A
C071:	32 D3 C0		LD	(VAR5), A
C074:	ED 53 C9 C0		LD	(VAR1), DE
C078:	CD 0E C1		CALL	SUB2
C07B:	ED 53 CB C0		LD	(VAR2), DE
C07F:	D5			PUSH	DE
C080:	CD 0E C1		CALL	SUB2
C083:	ED 53 CD C0		LD	(VAR3), DE
C087:	21 1B 00		LD	HL, 001Bh	; 27
C08A:	CD 13 C1		CALL	SUB3
C08D:	EB			EX	DE, HL
C08E:	22 CF C0		LD	(SMC1+1), HL
C091:	21 DA C0		LD	HL, REF1	; 0C0DAh ; 49370 ; -16166
C094:	22 D4 C0		LD	(VAR6), HL
C097:	21 DB C0		LD	HL, REF2	; 0C0DBh ; 49371 ; -16165
C09A:	11 DC C0		LD	DE, REF3	; 0C0DCh ; 49372 ; -16164
C09D:	01 2C 00		LD	BC, 002Ch	; 44
C0A0:	70			LD	(HL), B
C0A1:	ED B0			LDIR
C0A3:	E1			POP	HL
C0A4:	01 21 00		LD	BC, 0021h	; 33
C0A7:	AF			XOR	A
C0A8:	CD 08 C1		CALL	SUB1
C0AB:	3D			DEC	A
C0AC:	32 E4 C0		LD	(VAR10), A
C0AF:	32 EE C0		LD	(VAR12), A
C0B2:	32 F8 C0		LD	(0C0F8h), A
C0B5:	3E 01			LD	A, 01h		; 1
C0B7:	32 D2 C0		LD	(SMC2+1), A
C0BA:	23			INC	HL
C0BB:	22 E2 C0		LD	(VAR9), HL
C0BE:	22 EC C0		LD	(VAR11), HL
C0C1:	22 F6 C0		LD	(VAR14), HL
C0C4:	CD 78 C4		CALL	SUB12
C0C7:	FB			EI
C0C8:	C9			RET
C0C9:			VAR1:
C0C9:	77 F1			DW	0F177h
C0CB:			VAR2:
C0CB:	8F F1			DW	0F18Fh
C0CD:			VAR3:
C0CD:	13 F2			DW	0F213h
C0D1:			VAR4:
C0D1:			SMC2:
C0D1:	06			DB	06h
C0D3:			VAR5:
C0D3:	0C			DB	0Ch
C0D4:			VAR6:
C0D4:	B1 F4			DW	0F4B1h
C0D8:			VAR7:
C0D8:	35 F5			DW	0F535h
C0DA:			REF1:
C0DA:	FF			RST	38h
C0DB:			REF2:
C0DB:	00			NOP
C0DC:			REF3:
C0DC:	00			NOP
C0DD:			REF4:
C0DD:	04			INC	B
C0DE:	24			INC	H
C0DF:	00			NOP
C0E0:			VAR8:
C0E0:	88 EF			DW	0EF88h
C0E2:			VAR9:
C0E2:	90 F1			DW	0F190h
C0E4:			VAR10:
C0E4:	1C			DB	1Ch
C0E5:	02			LD	(BC), A
C0E6:	01 04 1A		LD	BC, 1A04h	; 6660
C0E9:			SMC4:
C0E9:	01 4E F0		LD	BC, 0F04Eh	; 61518 ; -4018
C0EC:			VAR11:
C0EC:	90 F1			DW	0F190h
C0EE:			VAR12:
C0EE:	1C			DB	1Ch
C0EF:	00			NOP
C0F0:	01 0A 35		LD	BC, 350Ah	; 13578
C0F3:	00			NOP
C0F4:			VAR13:
C0F4:	B1 F0			DW	0F0B1h
C0F6:			VAR14:
C0F6:	D2 F1			DW	0F1D2h
C0F9:			VAR15:
C0F9:	05			DB	05h
C0FA:			VAR16:
C0FA:	DF 09			DW	09DFh
C0FC:			VAR17:
C0FC:	58 03			DW	0358h
C0FE:			VAR18:
C0FE:	68 01			DW	0168h
C102:			REF5:
C102:	0B			DEC	BC
C103:			REF6:
C103:	1A			LD	A, (DE)
C104:			REF7:
C104:	07			RLCA
C105:			VAR19:
C105:	D9			DB	0D9h
C106:	00			NOP
C107:			VAR20:
C107:	00			DB	00h
C108:			SUB1:
C108:	BE			CP	(HL)
C109:	C8			RET	Z
C10A:	09			ADD	HL, BC
C10B:	C3 08 C1		JP	SUB1
C10E:			SUB2:
C10E:	5E			LD	E, (HL)
C10F:	23			INC	HL
C110:	56			LD	D, (HL)
C111:	23			INC	HL
C112:	EB			EX	DE, HL
C113:			SMC5:
C113:			SUB3:
C113:	01 43 EE		LD	BC, 0EE43h	; 60995 ; -4541
C116:	09			ADD	HL, BC
C117:	EB			EX	DE, HL
C118:	C9			RET
C119:			SUB4:
C119:	16 00			LD	D, 00h
C11B:	5F			LD	E, A
C11C:	87			ADD	A, A
C11D:	83			ADD	A, E
C11E:	5F			LD	E, A
C11F:	DD 19			ADD	IX, DE
C121:	DD 7E 01		LD	A, (IX+01h)
C124:	CB 7F			BIT	7, A
C126:	0E 10			LD	C, 10h		; 16
C128:	C2 2C C1		JP	NZ, LBL2
C12B:	4A			LD	C, D
C12C:			LBL2:
C12C:	CB 77			BIT	6, A
C12E:	06 02			LD	B, 02h		; 2
C130:	C2 34 C1		JP	NZ, LBL3
C133:	42			LD	B, D
C134:			LBL3:
C134:	E6 1F			AND	1Fh		; 31
C136:	67			LD	H, A
C137:	DD 5E 02		LD	E, (IX+02h)
C13A:	DD 7E 00		LD	A, (IX+00h)
C13D:	F5			PUSH	AF
C13E:	E6 F0			AND	0F0h		; 240 ; -16
C140:	0F			RRCA
C141:	0F			RRCA
C142:	0F			RRCA
C143:	0F			RRCA
C144:	57			LD	D, A
C145:	F1			POP	AF
C146:	E6 0F			AND	0Fh		; 15
C148:	6F			LD	L, A
C149:	DD CB 01 6E		BIT	5, (IX+01h)
C14D:	C8			RET	Z
C14E:	CB E2			SET	4, D
C150:	C9			RET
C151:			SUB5:
C151:	3A F9 C0		LD	A, (VAR15)
C154:	4F			LD	C, A
C155:	21 D3 C0		LD	HL, VAR5	; 0C0D3h ; 49363 ; -16173
C158:	BE			CP	(HL)
C159:	DA 5E C1		JP	C, LBL4
C15C:	AF			XOR	A
C15D:	4F			LD	C, A
C15E:			LBL4:
C15E:	3C			INC	A
C15F:	32 F9 C0		LD	(VAR15), A
C162:	69			LD	L, C
C163:	26 00			LD	H, 00h
C165:	29			ADD	HL, HL
C166:	ED 5B C9 C0		LD	DE, (VAR1)
C16A:	19			ADD	HL, DE
C16B:	4E			LD	C, (HL)
C16C:	23			INC	HL
C16D:	7E			LD	A, (HL)
C16E:	32 9D C3		LD	(SMC6+1), A
C171:	79			LD	A, C
C172:	2A CD C0		LD	HL, (VAR3)
C175:	01 07 00		LD	BC, 0007h	; 7
C178:	CD 08 C1		CALL	SUB1
C17B:	23			INC	HL
C17C:	CD 0E C1		CALL	SUB2
C17F:	ED 53 D4 C0		LD	(VAR6), DE
C183:	CD 0E C1		CALL	SUB2
C186:	ED 53 D6 C0		LD	(SMC3+1), DE
C18A:	CD 0E C1		CALL	SUB2
C18D:	ED 53 D8 C0		LD	(VAR7), DE
C191:	C9			RET
C192:			SUB6:
C192:	DD 35 02		DEC	(IX+02h)
C195:	F0			RET	P
C196:	DD 7E FF		LD	A, (IX-01h)
C199:	DD 77 02		LD	(IX+02h), A
C19C:	C9			RET
C19D:			LBL5:
C19D:	3A D2 C0		LD	A, (SMC2+1)
C1A0:	3D			DEC	A
C1A1:	32 D2 C0		LD	(SMC2+1), A
C1A4:	C2 E7 C2		JP	NZ, LBL19
C1A7:	3A D1 C0		LD	A, (VAR4)
C1AA:	32 D2 C0		LD	(SMC2+1), A
C1AD:	DD 21 DD C0		LD	IX, REF4	; 0C0DDh ; 49373 ; -16163
C1B1:	CD 92 C1		CALL	SUB6
C1B4:	F2 C8 C1		JP	P, LBL6
C1B7:	2A D4 C0		LD	HL, (VAR6)
C1BA:	7E			LD	A, (HL)
C1BB:	3C			INC	A
C1BC:	CC 51 C1		CALL	Z, SUB5
C1BF:	2A D4 C0		LD	HL, (VAR6)
C1C2:	CD F1 C1		CALL	SUB7
C1C5:	22 D4 C0		LD	(VAR6), HL
C1C8:			LBL6:
C1C8:	DD 21 E7 C0		LD	IX, 0C0E7h	; 49383 ; -16153
C1CC:	CD 92 C1		CALL	SUB6
C1CF:	F2 DB C1		JP	P, LBL7
C1D2:	2A D6 C0		LD	HL, (SMC3+1)
C1D5:	CD F1 C1		CALL	SUB7
C1D8:	22 D6 C0		LD	(SMC3+1), HL
C1DB:			LBL7:
C1DB:	DD 21 F1 C0		LD	IX, 0C0F1h	; 49393 ; -16143
C1DF:	CD 92 C1		CALL	SUB6
C1E2:	F2 E7 C2		JP	P, LBL19
C1E5:	2A D8 C0		LD	HL, (VAR7)
C1E8:	CD F1 C1		CALL	SUB7
C1EB:	22 D8 C0		LD	(VAR7), HL
C1EE:	C3 E7 C2		JP	LBL19
C1F1:			SUB7:
C1F1:	7E			LD	A, (HL)
C1F2:	FE 60			CP	60h		; 96 ; 'Ю'
C1F4:	DA 1F C2		JP	C, LBL8
C1F7:	FE 70			CP	70h		; 112 ; 'П'
C1F9:	DA 2C C2		JP	C, LBL10
C1FC:	FE 80			CP	80h		; 128 ; -128
C1FE:	DA 4D C2		JP	C, LBL14
C201:	CA 44 C2		JP	Z, LBL11
C204:	FE 81			CP	81h		; 129 ; -127
C206:	CA 2A C2		JP	Z, LBL9
C209:	FE 82			CP	82h		; 130 ; -126
C20B:	CA 4A C2		JP	Z, LBL13
C20E:	FE 8F			CP	8Fh		; 143 ; -113
C210:	DA 69 C2		JP	C, LBL16
C213:	D6 A1			SUB	0A1h		; 161 ; -95
C215:	DD 77 02		LD	(IX+02h), A
C218:	DD 77 FF		LD	(IX-01h), A
C21B:	23			INC	HL
C21C:	C3 F1 C1		JP	SUB7
C21F:			LBL8:
C21F:	DD 77 01		LD	(IX+01h), A
C222:	DD 36 00 00		LD	(IX+00h), 00h
C226:	DD 36 07 20		LD	(IX+07h), 20h	; 32 ; ' '
C22A:			LBL9:
C22A:	23			INC	HL
C22B:	C9			RET
C22C:			LBL10:
C22C:	D6 60			SUB	60h		; 96 ; 'Ю'
C22E:	E5			PUSH	HL
C22F:	01 63 00		LD	BC, 0063h	; 99
C232:	2A CF C0		LD	HL, (SMC1+1)
C235:	CD 08 C1		CALL	SUB1
C238:	23			INC	HL
C239:	DD 75 03		LD	(IX+03h), L
C23C:	DD 74 04		LD	(IX+04h), H
C23F:	E1			POP	HL
C240:	23			INC	HL
C241:	C3 F1 C1		JP	SUB7
C244:			LBL11:
C244:	23			INC	HL
C245:			LBL12:
C245:	DD 36 07 FF		LD	(IX+07h), 0FFh	; 255 ; -1
C249:	C9			RET
C24A:			LBL13:
C24A:	AF			XOR	A
C24B:	18 02			JR	LBL15
C24D:			LBL14:
C24D:	D6 70			SUB	70h		; 112 ; 'П'
C24F:			LBL15:
C24F:	E5			PUSH	HL
C250:	01 21 00		LD	BC, 0021h	; 33
C253:	2A CB C0		LD	HL, (VAR2)
C256:	CD 08 C1		CALL	SUB1
C259:	23			INC	HL
C25A:	DD 75 05		LD	(IX+05h), L
C25D:	DD 74 06		LD	(IX+06h), H
C260:	DD 36 FE 00		LD	(IX-02h), 00h
C264:	E1			POP	HL
C265:	23			INC	HL
C266:	C3 F1 C1		JP	SUB7
C269:			LBL16:
C269:	D6 80			SUB	80h		; 128 ; -128
C26B:	32 07 C1		LD	(VAR20), A
C26E:	23			INC	HL
C26F:	7E			LD	A, (HL)
C270:	23			INC	HL
C271:	32 05 C1		LD	(VAR19), A
C274:	DD 36 FE 01		LD	(IX-02h), 01h	; 1
C278:	E5			PUSH	HL
C279:	AF			XOR	A
C27A:	01 21 00		LD	BC, 0021h	; 33
C27D:	2A CB C0		LD	HL, (VAR2)
C280:	CD 08 C1		CALL	SUB1
C283:	23			INC	HL
C284:	DD 75 05		LD	(IX+05h), L
C287:	DD 74 06		LD	(IX+06h), H
C28A:	E1			POP	HL
C28B:	C3 F1 C1		JP	SUB7
C28E:			SUB8:
C28E:	DD 7E 07		LD	A, (IX+07h)
C291:	3C			INC	A
C292:	C8			RET	Z
C293:	3D			DEC	A
C294:	3D			DEC	A
C295:	DD 77 07		LD	(IX+07h), A
C298:	F5			PUSH	AF
C299:	DD 7E 00		LD	A, (IX+00h)
C29C:	4F			LD	C, A
C29D:	3C			INC	A
C29E:	E6 1F			AND	1Fh		; 31
C2A0:	DD 77 00		LD	(IX+00h), A
C2A3:	F1			POP	AF
C2A4:	C0			RET	NZ
C2A5:	DD 5E 03		LD	E, (IX+03h)
C2A8:	DD 56 04		LD	D, (IX+04h)
C2AB:	21 60 00		LD	HL, 0060h	; 96
C2AE:	19			ADD	HL, DE
C2AF:	7E			LD	A, (HL)
C2B0:	3D			DEC	A
C2B1:	FA 45 C2		JP	M, LBL12
C2B4:	4F			LD	C, A
C2B5:	3C			INC	A
C2B6:	E6 1F			AND	1Fh		; 31
C2B8:	DD 77 00		LD	(IX+00h), A
C2BB:	23			INC	HL
C2BC:	7E			LD	A, (HL)
C2BD:	3C			INC	A
C2BE:	DD 77 07		LD	(IX+07h), A
C2C1:	C9			RET
C2C2:			SUB9:
C2C2:	79			LD	A, C
C2C3:	B7			OR	A
C2C4:	C0			RET	NZ
C2C5:	7C			LD	A, H
C2C6:	32 00 C1		LD	(0C100h), A
C2C9:	C9			RET
C2CA:			SUB10:
C2CA:	DD 7E 07		LD	A, (IX+07h)
C2CD:	3C			INC	A
C2CE:	C8			RET	Z
C2CF:	DD 7E FE		LD	A, (IX-02h)
C2D2:	B7			OR	A
C2D3:	C8			RET	Z
C2D4:	FE 02			CP	02h		; 2
C2D6:	CA E0 C2		JP	Z, LBL17
C2D9:	DD 36 FE 02		LD	(IX-02h), 02h	; 2
C2DD:	C3 E4 C2		JP	LBL18
C2E0:			LBL17:
C2E0:	AF			XOR	A
C2E1:	32 07 C1		LD	(VAR20), A
C2E4:			LBL18:
C2E4:	CB E6			SET	4, (HL)
C2E6:	C9			RET
C2E7:			LBL19:
C2E7:	DD 21 DD C0		LD	IX, REF4	; 0C0DDh ; 49373 ; -16163
C2EB:	CD 8E C2		CALL	SUB8
C2EE:	79			LD	A, C
C2EF:	32 95 C3		LD	(0C395h), A
C2F2:	DD 2A E0 C0		LD	IX, (VAR8)
C2F6:	CD 19 C1		CALL	SUB4
C2F9:	79			LD	A, C
C2FA:	B0			OR	B
C2FB:	0F			RRCA
C2FC:	32 01 C1		LD	(0C101h), A
C2FF:	DD 21 DD C0		LD	IX, REF4	; 0C0DDh ; 49373 ; -16163
C303:	DD 7E 07		LD	A, (IX+07h)
C306:	3C			INC	A
C307:	CA 13 C3		JP	Z, LBL20
C30A:	CD C2 C2		CALL	SUB9
C30D:	CD 8B C3		CALL	SUB11
C310:	22 FA C0		LD	(VAR16), HL
C313:			LBL20:
C313:	21 02 C1		LD	HL, REF5	; 0C102h ; 49410 ; -16126
C316:	77			LD	(HL), A
C317:	CD CA C2		CALL	SUB10
C31A:	DD 21 E7 C0		LD	IX, 0C0E7h	; 49383 ; -16153
C31E:	CD 8E C2		CALL	SUB8
C321:	DD 7E 07		LD	A, (IX+07h)
C324:	3C			INC	A
C325:	CA 48 C3		JP	Z, LBL21
C328:	79			LD	A, C
C329:	32 95 C3		LD	(0C395h), A
C32C:	DD 2A EA C0		LD	IX, (SMC4+1)
C330:	CD 19 C1		CALL	SUB4
C333:	3A 01 C1		LD	A, (0C101h)
C336:	B1			OR	C
C337:	B0			OR	B
C338:	32 01 C1		LD	(0C101h), A
C33B:	CD C2 C2		CALL	SUB9
C33E:	DD 21 E7 C0		LD	IX, 0C0E7h	; 49383 ; -16153
C342:	CD 8B C3		CALL	SUB11
C345:	22 FC C0		LD	(VAR17), HL
C348:			LBL21:
C348:	21 03 C1		LD	HL, REF6	; 0C103h ; 49411 ; -16125
C34B:	77			LD	(HL), A
C34C:	CD CA C2		CALL	SUB10
C34F:	DD 21 F1 C0		LD	IX, 0C0F1h	; 49393 ; -16143
C353:	CD 8E C2		CALL	SUB8
C356:	DD 7E 07		LD	A, (IX+07h)
C359:	3C			INC	A
C35A:	CA 81 C3		JP	Z, LBL22
C35D:	79			LD	A, C
C35E:	32 95 C3		LD	(0C395h), A
C361:	DD 2A F4 C0		LD	IX, (VAR13)
C365:	CD 19 C1		CALL	SUB4
C368:	3A 01 C1		LD	A, (0C101h)
C36B:	CB 01			RLC	C
C36D:	CB 00			RLC	B
C36F:	B0			OR	B
C370:	B1			OR	C
C371:	32 01 C1		LD	(0C101h), A
C374:	CD C2 C2		CALL	SUB9
C377:	DD 21 F1 C0		LD	IX, 0C0F1h	; 49393 ; -16143
C37B:	CD 8B C3		CALL	SUB11
C37E:	22 FE C0		LD	(VAR18), HL
C381:			LBL22:
C381:	21 04 C1		LD	HL, REF7	; 0C104h ; 49412 ; -16124
C384:	77			LD	(HL), A
C385:	CD CA C2		CALL	SUB10
C388:	C3 78 C4		JP	SUB12
C38B:			SUB11:
C38B:	7D			LD	A, L
C38C:	F5			PUSH	AF
C38D:	D5			PUSH	DE
C38E:	DD 6E 05		LD	L, (IX+05h)
C391:	DD 66 06		LD	H, (IX+06h)
C394:	11 0A 00		LD	DE, 000Ah	; 10
C397:	19			ADD	HL, DE
C398:	DD 7E 01		LD	A, (IX+01h)
C39B:	86			ADD	A, (HL)
C39C:			SMC6:
C39C:	C6 00			ADD	A, 00h
C39E:	87			ADD	A, A
C39F:	5F			LD	E, A
C3A0:	16 00			LD	D, 00h
C3A2:	21 B8 C3		LD	HL, REF8	; 0C3B8h ; 50104 ; -15432
C3A5:	19			ADD	HL, DE
C3A6:	5E			LD	E, (HL)
C3A7:	23			INC	HL
C3A8:	56			LD	D, (HL)
C3A9:	EB			EX	DE, HL
C3AA:	D1			POP	DE
C3AB:	F1			POP	AF
C3AC:	CB 62			BIT	4, D
C3AE:	28 04			JR	Z, LBL23
C3B0:	CB A2			RES	4, D
C3B2:	19			ADD	HL, DE
C3B3:	C9			RET
C3B4:			LBL23:
C3B4:	A7			AND	A
C3B5:	ED 52			SBC	HL, DE
C3B7:	C9			RET
C3B8:			REF8:

        dw      0EF8h,0E10h,0D60h,0C80h,0BD8h,0B28h,0A88h,09F0h
        dw      0960h,08E0h,0858h,07E0h,077Ch,0708h,06B0h,0640h
        dw      05ECh,0594h,0544h,04F8h,04B0h,0470h,042Ch,03F0h
        dw      03BEh,0384h,0358h,0320h,02F6h,02CAh,02A2h,027Ch
        dw      0258h,0238h,0216h,01F8h,01DFh,01C2h,01ACh,0190h
        dw      017Bh,0165h,0151h,013Eh,012Ch,011Ch,010Bh,00FCh
        dw      00EFh,00E1h,00D6h,00C8h,00BDh,00B2h,00A8h,009Fh
        dw      0096h,008Eh,0085h,007Eh,0077h,0070h,006Bh,0064h
        dw      005Eh,0059h,0054h,004Fh,004Bh,0047h,0042h,003Fh
        dw      003Bh,0038h,0035h,0032h,002Fh,002Ch,002Ah,0027h
        dw      0025h,0023h,0021h,001Fh,001Dh,001Ch,001Ah,0019h
        dw      0017h,0016h,0015h,0013h,0012h,0011h,0010h,000Fh

C478:			SUB12:
C478:	21 07 C1		LD	HL, VAR20	; 0C107h ; 49415 ; -16121
C47B:	AF			XOR	A
C47C:	B6			OR	(HL)
C47D:	3E 0D			LD	A, 0Dh		; 13
C47F:	20 05			JR	NZ, LBL28
C481:	D6 03			SUB	03h		; 3
C483:	2B			DEC	HL
C484:	2B			DEC	HL
C485:	2B			DEC	HL
C486:			LBL28:
C486:	0E FD			LD	C, 0FDh		; 253 ; -3
C488:			LBL29:
C488:	06 FF			LD	B, 0FFh		; 255 ; -1
C48A:	ED 79			OUT	(C), A
C48C:	06 BF			LD	B, 0BFh		; 191 ; -65
C48E:	ED AB			OUTD
C490:	3D			DEC	A
C491:	F2 88 C4		JP	P, LBL29
C494:	C9			RET
C495:			LBL30:
C495:	ED 79			OUT	(C), A
C497:	3C			INC	A
C498:	20 FB			JR	NZ, LBL30
C49A:	06 FF			LD	B, 0FFh		; 255 ; -1
C49C:	3E 07			LD	A, 07h		; 7
C49E:	ED 79			OUT	(C), A
C4A0:	01 FD BF		LD	BC, 0BFFDh	; 49149 ; -16387
C4A3:	3E FF			LD	A, 0FFh		; 255 ; -1
C4A5:	ED 79			OUT	(C), A
C4A7:	C9			RET
